; Function Attrs: nofree norecurse nosync nounwind memory(argmem: readwrite) uwtable
define internal void @DC8uvNoLeft_SSE2(ptr noundef captures(none) %0) #2 {
  %2 = getelementptr inbounds i8, ptr %0, i64 -32
  %3 = load i64, ptr %2, align 1, !tbaa !7
  %4 = insertelement <2 x i64> <i64 poison, i64 0>, i64 %3, i64 0
  %5 = bitcast <2 x i64> %4 to <16 x i8>
  %6 = tail call <2 x i64> @llvm.x86.sse2.psad.bw(<16 x i8> %5, <16 x i8> zeroinitializer)
  %7 = bitcast <2 x i64> %6 to <4 x i32>
  %8 = extractelement <4 x i32> %7, i64 0
  %9 = add nsw i32 %8, 4
  %10 = lshr i32 %9, 3
  %11 = trunc i32 %10 to i8
  %12 = insertelement <16 x i8> poison, i8 %11, i64 0
  %13 = shufflevector <16 x i8> %12, <16 x i8> poison, <16 x i32> <i32 0, i32 0, i32 0, i32 0, i32 0, i32 0, i32 0, i32 0, i32 poison, i32 poison, i32 poison, i32 poison, i32 poison, i32 poison, i32 poison, i32 poison>
  %14 = bitcast <16 x i8> %13 to <2 x i64>
  %15 = extractelement <2 x i64> %14, i64 0
  br label %16

16:                                               ; preds = %16, %1
  %indvars.iv.i = phi i64 [ 0, %1 ], [ %indvars.iv.next.i, %16 ]
  %17 = shl nuw nsw i64 %indvars.iv.i, 5
  %18 = getelementptr inbounds nuw i8, ptr %0, i64 %17
  store i64 %15, ptr %18, align 1, !tbaa !7
  %indvars.iv.next.i = add nuw nsw i64 %indvars.iv.i, 1
  %exitcond.not.i = icmp eq i64 %indvars.iv.next.i, 8
  br i1 %exitcond.not.i, label %Put8x8uv_SSE2.exit, label %16, !llvm.loop !23

Put8x8uv_SSE2.exit:                               ; preds = %16
  ret void
}